target datalayout = "e-m:e-p270:32:32-p271:32:32-p272:64:64-i64:64-i128:128-f80:128-n8:16:32:64-S128"
target triple = "x86_64-pc-linux-gnu"

; Function Attrs: mustprogress nounwind uwtable
define dso_local noundef zeroext i1 @_ZN5clang6interp15ByteCodeEmitter17emitAllocCNSint32EPKNS0_10DescriptorEbRKNS0_10SourceInfoE(ptr noundef nonnull align 8 dereferenceable(488) %0, ptr noundef %1, i1 noundef zeroext %2, ptr noundef nonnull align 8 dereferenceable(8) %3) #0 align 2 {
  %5 = alloca ptr, align 8
  %6 = alloca ptr, align 8
  %7 = alloca i8, align 1
  %8 = alloca ptr, align 8
  store ptr %0, ptr %5, align 8
  store ptr %1, ptr %6, align 8
  %9 = zext i1 %2 to i8
  store i8 %9, ptr %7, align 1
  store ptr %3, ptr %8, align 8
  %10 = load ptr, ptr %5, align 8
  %11 = load ptr, ptr %8, align 8
  %12 = call noundef zeroext i1 @_ZN5clang6interp15ByteCodeEmitter6emitOpIJPKNS0_10DescriptorEbEEEbNS0_6OpcodeEDpRKT_RKNS0_10SourceInfoE(ptr noundef nonnull align 8 dereferenceable(488) %10, i32 noundef 28, ptr noundef nonnull align 8 dereferenceable(8) %6, ptr noundef nonnull align 1 dereferenceable(1) %7, ptr noundef nonnull align 8 dereferenceable(8) %11)
  ret i1 %12
}