; Function Attrs: mustprogress nounwind uwtable
define dso_local noundef zeroext i1 @_ZN5clang6interp15ByteCodeEmitter17emitAllocCNSint32EPKNS0_10DescriptorEbRKNS0_10SourceInfoE(ptr noundef nonnull align 8 dereferenceable(488) %0, ptr noundef %1, i1 noundef zeroext %2, ptr noundef nonnull align 8 dereferenceable(8) %3) local_unnamed_addr #0 align 2 {
  %5 = alloca ptr, align 8
  %6 = alloca i8, align 1
  store ptr %1, ptr %5, align 8
  %7 = zext i1 %2 to i8
  store i8 %7, ptr %6, align 1
  %8 = call noundef zeroext i1 @_ZN5clang6interp15ByteCodeEmitter6emitOpIJPKNS0_10DescriptorEbEEEbNS0_6OpcodeEDpRKT_RKNS0_10SourceInfoE(ptr noundef nonnull align 8 dereferenceable(488) %0, i32 noundef 28, ptr noundef nonnull align 8 dereferenceable(8) %5, ptr noundef nonnull align 1 dereferenceable(1) %6, ptr noundef nonnull align 8 dereferenceable(8) %3)
  ret i1 %8
}